target datalayout = "e-m:e-p270:32:32-p271:32:32-p272:64:64-i64:64-i128:128-f80:128-n8:16:32:64-S128"
target triple = "x86_64-pc-linux-gnu"

%"class.llvm::DwarfExpression" = type { ptr, i8, ptr, %"class.llvm::SmallVector", i64, i32, i16, %"class.std::optional" }
%"class.llvm::SmallVector" = type { %"class.llvm::SmallVectorImpl", %"struct.llvm::SmallVectorStorage" }
%"class.llvm::SmallVectorImpl" = type { %"class.llvm::SmallVectorTemplateBase" }
%"class.llvm::SmallVectorTemplateBase" = type { %"class.llvm::SmallVectorTemplateCommon" }
%"class.llvm::SmallVectorTemplateCommon" = type { %"class.llvm::SmallVectorBase" }
%"class.llvm::SmallVectorBase" = type { ptr, i32, i32 }
%"struct.llvm::SmallVectorStorage" = type { [32 x i8] }
%"class.std::optional" = type { %"struct.std::_Optional_base" }
%"struct.std::_Optional_base" = type { %"struct.std::_Optional_payload" }
%"struct.std::_Optional_payload" = type { %"struct.std::_Optional_payload_base" }
%"struct.std::_Optional_payload_base" = type { %"union.std::_Optional_payload_base<unsigned char>::_Storage", i8 }
%"union.std::_Optional_payload_base<unsigned char>::_Storage" = type { %"struct.std::_Optional_payload_base<unsigned char>::_Empty_byte" }
%"struct.std::_Optional_payload_base<unsigned char>::_Empty_byte" = type { i8 }

; Function Attrs: mustprogress nounwind uwtable
define dso_local void @_ZN4llvm15DwarfExpression6addRegEiPKc(ptr noundef nonnull align 8 dereferenceable(88) %0, i32 noundef %1, ptr noundef %2) #0 align 2 {
  %4 = alloca ptr, align 8
  %5 = alloca i32, align 4
  %6 = alloca ptr, align 8
  store ptr %0, ptr %4, align 8
  store i32 %1, ptr %5, align 4
  store ptr %2, ptr %6, align 8
  %7 = load ptr, ptr %4, align 8
  %8 = getelementptr inbounds nuw %"class.llvm::DwarfExpression", ptr %7, i32 0, i32 6
  %9 = load i16, ptr %8, align 4
  %10 = and i16 %9, -8
  %11 = or i16 %10, 1
  store i16 %11, ptr %8, align 4
  %12 = load i32, ptr %5, align 4
  %13 = icmp slt i32 %12, 32
  br i1 %13, label %14, label %22

14:                                               ; preds = %3
  %15 = load i32, ptr %5, align 4
  %16 = add nsw i32 80, %15
  %17 = trunc i32 %16 to i8
  %18 = load ptr, ptr %6, align 8
  %19 = load ptr, ptr %7, align 8
  %20 = getelementptr inbounds ptr, ptr %19, i64 0
  %21 = load ptr, ptr %20, align 8
  call void %21(ptr noundef nonnull align 8 dereferenceable(88) %7, i8 noundef zeroext %17, ptr noundef %18)
  br label %32

22:                                               ; preds = %3
  %23 = load ptr, ptr %6, align 8
  %24 = load ptr, ptr %7, align 8
  %25 = getelementptr inbounds ptr, ptr %24, i64 0
  %26 = load ptr, ptr %25, align 8
  call void %26(ptr noundef nonnull align 8 dereferenceable(88) %7, i8 noundef zeroext -112, ptr noundef %23)
  %27 = load i32, ptr %5, align 4
  %28 = sext i32 %27 to i64
  %29 = load ptr, ptr %7, align 8
  %30 = getelementptr inbounds ptr, ptr %29, i64 2
  %31 = load ptr, ptr %30, align 8
  call void %31(ptr noundef nonnull align 8 dereferenceable(88) %7, i64 noundef %28)
  br label %32

32:                                               ; preds = %22, %14
  ret void
}