; Function Attrs: mustprogress nounwind uwtable
define dso_local void @_ZN4llvm15DwarfExpression6addRegEiPKc(ptr noundef nonnull align 8 dereferenceable(88) %0, i32 noundef %1, ptr noundef %2) local_unnamed_addr #0 align 2 {
  %4 = getelementptr inbounds nuw i8, ptr %0, i64 84
  %5 = load i16, ptr %4, align 4
  %6 = and i16 %5, -8
  %7 = or disjoint i16 %6, 1
  store i16 %7, ptr %4, align 4
  %8 = icmp slt i32 %1, 32
  br i1 %8, label %9, label %14

9:                                                ; preds = %3
  %10 = trunc i32 %1 to i8
  %11 = add i8 %10, 80
  %12 = load ptr, ptr %0, align 8
  %13 = load ptr, ptr %12, align 8
  tail call void %13(ptr noundef nonnull align 8 dereferenceable(88) %0, i8 noundef zeroext %11, ptr noundef %2) #13
  br label %21

14:                                               ; preds = %3
  %15 = load ptr, ptr %0, align 8
  %16 = load ptr, ptr %15, align 8
  tail call void %16(ptr noundef nonnull align 8 dereferenceable(88) %0, i8 noundef zeroext -112, ptr noundef %2) #13
  %17 = zext nneg i32 %1 to i64
  %18 = load ptr, ptr %0, align 8
  %19 = getelementptr inbounds i8, ptr %18, i64 16
  %20 = load ptr, ptr %19, align 8
  tail call void %20(ptr noundef nonnull align 8 dereferenceable(88) %0, i64 noundef %17) #13
  br label %21

21:                                               ; preds = %14, %9
  ret void
}